; Function Attrs: nounwind sspstrong uwtable
define internal fastcc i32 @ossl_asn1_default_tag(i64 noundef %0) unnamed_addr #0 {
  %2 = icmp eq i64 %0, 0
  %3 = and i64 %0, 7
  %4 = icmp ne i64 %3, 0
  %5 = or i1 %2, %4
  br i1 %5, label %9, label %6

6:                                                ; preds = %1
  %7 = inttoptr i64 %0 to ptr
  %8 = getelementptr inbounds nuw i8, ptr %7, i64 8
  br label %rb_class_of.exit

9:                                                ; preds = %1
  switch i64 %0, label %12 [
    i64 0, label %rb_class_of.exit
    i64 4, label %10
    i64 20, label %11
  ]

10:                                               ; preds = %9
  br label %rb_class_of.exit

11:                                               ; preds = %9
  br label %rb_class_of.exit

12:                                               ; preds = %9
  %13 = and i64 %0, 1
  %.not.i = icmp eq i64 %13, 0
  br i1 %.not.i, label %14, label %rb_class_of.exit

14:                                               ; preds = %12
  %15 = and i64 %0, 254
  %16 = icmp eq i64 %15, 12
  %spec.select.i = select i1 %16, ptr @rb_cSymbol, ptr @rb_cFloat
  br label %rb_class_of.exit

rb_class_of.exit:                                 ; preds = %6, %9, %10, %11, %12, %14
  %.0.in.i = phi ptr [ @rb_cNilClass, %10 ], [ @rb_cTrueClass, %11 ], [ %8, %6 ], [ @rb_cFalseClass, %9 ], [ @rb_cInteger, %12 ], [ %spec.select.i, %14 ]
  %.0.i = load i64, ptr %.0.in.i, align 8, !tbaa !17
  %17 = icmp eq i64 %.0.i, 4
  br i1 %17, label %.loopexit, label %.lr.ph

.lr.ph:                                           ; preds = %rb_class_of.exit, %27
  %.0711 = phi i64 [ %28, %27 ], [ %.0.i, %rb_class_of.exit ]
  %18 = load i64, ptr @class_tag_map, align 8, !tbaa !17
  %19 = tail call i64 @rb_hash_lookup(i64 noundef %18, i64 noundef %.0711) #9
  %.not = icmp eq i64 %19, 4
  br i1 %.not, label %27, label %20

20:                                               ; preds = %.lr.ph
  %21 = and i64 %19, 1
  %.not.i9 = icmp eq i64 %21, 0
  br i1 %.not.i9, label %24, label %22

22:                                               ; preds = %20
  %23 = tail call i64 @rb_fix2int(i64 noundef %19) #9
  br label %rb_num2int_inline.exit

24:                                               ; preds = %20
  %25 = tail call i64 @rb_num2int(i64 noundef %19) #9
  br label %rb_num2int_inline.exit

rb_num2int_inline.exit:                           ; preds = %22, %24
  %.0.i10 = phi i64 [ %23, %22 ], [ %25, %24 ]
  %26 = trunc i64 %.0.i10 to i32
  br label %.loopexit

27:                                               ; preds = %.lr.ph
  %28 = tail call i64 @rb_class_superclass(i64 noundef %.0711) #12
  %29 = icmp eq i64 %28, 4
  br i1 %29, label %.loopexit, label %.lr.ph, !llvm.loop !90

.loopexit:                                        ; preds = %27, %rb_class_of.exit, %rb_num2int_inline.exit
  %.0 = phi i32 [ %26, %rb_num2int_inline.exit ], [ -1, %rb_class_of.exit ], [ -1, %27 ]
  ret i32 %.0
}